target datalayout = "e-m:e-p270:32:32-p271:32:32-p272:64:64-i64:64-i128:128-f80:128-n8:16:32:64-S128"
target triple = "x86_64-pc-linux-gnu"

%"class.VM_Version::CpuidInfo" = type { i32, i32, i32, i32, %"union.VM_Version::StdCpuid1Eax", %"union.VM_Version::StdCpuid1Ebx", %"union.VM_Version::StdCpuid1Ecx", %"union.VM_Version::StdCpuid1Edx", %"union.VM_Version::DcpCpuid4Eax", %"union.VM_Version::DcpCpuid4Ebx", i32, i32, %"union.VM_Version::SefCpuid7Eax", %"union.VM_Version::SefCpuid7Ebx", %"union.VM_Version::SefCpuid7Ecx", %"union.VM_Version::SefCpuid7Edx", %"union.VM_Version::SefCpuid7SubLeaf1Eax", %"union.VM_Version::SefCpuid7SubLeaf1Edx", i32, %"union.VM_Version::TplCpuidBEbx", i32, i32, i32, %"union.VM_Version::TplCpuidBEbx", i32, i32, i32, %"union.VM_Version::TplCpuidBEbx", i32, i32, i32, i32, i32, i32, i32, i32, %"union.VM_Version::ExtCpuid1Ecx", %"union.VM_Version::ExtCpuid1Edx", i32, i32, i32, i32, i32, i32, i32, i32, i32, i32, i32, i32, i32, i32, %"union.VM_Version::ExtCpuid5Ex", %"union.VM_Version::ExtCpuid5Ex", i32, i32, i32, %"union.VM_Version::ExtCpuid7Edx", i32, i32, %"union.VM_Version::ExtCpuid8Ecx", i32, i32, %"union.VM_Version::ExtCpuid1EEbx", i32, i32, %"union.VM_Version::XemXcr0Eax", i32, [32 x i32], [64 x i32], [2 x i64] }
%"union.VM_Version::StdCpuid1Eax" = type { i32 }
%"union.VM_Version::StdCpuid1Ebx" = type { i32 }
%"union.VM_Version::StdCpuid1Ecx" = type { i32 }
%"union.VM_Version::StdCpuid1Edx" = type { i32 }
%"union.VM_Version::DcpCpuid4Eax" = type { i32 }
%"union.VM_Version::DcpCpuid4Ebx" = type { i32 }
%"union.VM_Version::SefCpuid7Eax" = type { i32 }
%"union.VM_Version::SefCpuid7Ebx" = type { i32 }
%"union.VM_Version::SefCpuid7Ecx" = type { i32 }
%"union.VM_Version::SefCpuid7Edx" = type { i32 }
%"union.VM_Version::SefCpuid7SubLeaf1Eax" = type { i32 }
%"union.VM_Version::SefCpuid7SubLeaf1Edx" = type { i32 }
%"union.VM_Version::TplCpuidBEbx" = type { i32 }
%"union.VM_Version::ExtCpuid1Ecx" = type { i32 }
%"union.VM_Version::ExtCpuid1Edx" = type { i32 }
%"union.VM_Version::ExtCpuid5Ex" = type { i32 }
%"union.VM_Version::ExtCpuid7Edx" = type { i32 }
%"union.VM_Version::ExtCpuid8Ecx" = type { i32 }
%"union.VM_Version::ExtCpuid1EEbx" = type { i32 }
%"union.VM_Version::XemXcr0Eax" = type { i32 }
%class.anon.12 = type { i8 }

@_ZN10VM_Version11_cpuid_infoE = external global %"class.VM_Version::CpuidInfo", align 8
@_ZN19Abstract_VM_Version9_featuresE = external global i64, align 8

; Function Attrs: mustprogress nounwind uwtable
define linkonce_odr hidden noundef i32 @_ZNK10VM_Version9CpuidInfo19extended_cpu_familyEv(ptr noundef nonnull align 8 dereferenceable(672) %0) #1 comdat align 2 {
  %2 = alloca ptr, align 8
  %3 = alloca i32, align 4
  store ptr %0, ptr %2, align 8
  %4 = load ptr, ptr %2, align 8
  %5 = getelementptr inbounds %"class.VM_Version::CpuidInfo", ptr %4, i32 0, i32 4
  %6 = load i32, ptr %5, align 8
  %7 = lshr i32 %6, 8
  %8 = and i32 %7, 15
  store i32 %8, ptr %3, align 4
  %9 = getelementptr inbounds %"class.VM_Version::CpuidInfo", ptr %4, i32 0, i32 4
  %10 = load i32, ptr %9, align 8
  %11 = lshr i32 %10, 20
  %12 = and i32 %11, 255
  %13 = load i32, ptr %3, align 4
  %14 = add i32 %13, %12
  store i32 %14, ptr %3, align 4
  %15 = load i32, ptr %3, align 4
  ret i32 %15
}

; Function Attrs: mustprogress nounwind uwtable
define linkonce_odr hidden noundef i32 @_ZNK10VM_Version9CpuidInfo18extended_cpu_modelEv(ptr noundef nonnull align 8 dereferenceable(672) %0) #1 comdat align 2 {
  %2 = alloca ptr, align 8
  %3 = alloca i32, align 4
  store ptr %0, ptr %2, align 8
  %4 = load ptr, ptr %2, align 8
  %5 = getelementptr inbounds %"class.VM_Version::CpuidInfo", ptr %4, i32 0, i32 4
  %6 = load i32, ptr %5, align 8
  %7 = lshr i32 %6, 4
  %8 = and i32 %7, 15
  store i32 %8, ptr %3, align 4
  %9 = getelementptr inbounds %"class.VM_Version::CpuidInfo", ptr %4, i32 0, i32 4
  %10 = load i32, ptr %9, align 8
  %11 = lshr i32 %10, 16
  %12 = and i32 %11, 15
  %13 = shl i32 %12, 4
  %14 = load i32, ptr %3, align 4
  %15 = or i32 %14, %13
  store i32 %15, ptr %3, align 4
  %16 = load i32, ptr %3, align 4
  ret i32 %16
}

; Function Attrs: mustprogress nounwind uwtable
define linkonce_odr hidden noundef i32 @_ZN10VM_Version19extended_cpu_familyEv() #1 comdat align 2 {
  %1 = call noundef i32 @_ZNK10VM_Version9CpuidInfo19extended_cpu_familyEv(ptr noundef nonnull align 8 dereferenceable(672) @_ZN10VM_Version11_cpuid_infoE)
  ret i32 %1
}

; Function Attrs: mustprogress nounwind uwtable
define linkonce_odr hidden void @_ZNK10VM_Version9CpuidInfo21assert_is_initializedEv(ptr noundef nonnull align 8 dereferenceable(672) %0) #1 comdat align 2 {
  %2 = alloca ptr, align 8
  store ptr %0, ptr %2, align 8
  ret void
}

; Function Attrs: mustprogress nounwind uwtable
define linkonce_odr hidden noundef i32 @_ZN10VM_Version18extended_cpu_modelEv() #1 comdat align 2 {
  %1 = call noundef i32 @_ZNK10VM_Version9CpuidInfo18extended_cpu_modelEv(ptr noundef nonnull align 8 dereferenceable(672) @_ZN10VM_Version11_cpuid_infoE)
  ret i32 %1
}

; Function Attrs: mustprogress nounwind uwtable
define linkonce_odr hidden noundef zeroext i1 @_ZN10VM_Version20is_intel_family_coreEv() #1 comdat align 2 {
  %1 = call noundef zeroext i1 @_ZN10VM_Version8is_intelEv()
  br i1 %1, label %2, label %5

2:                                                ; preds = %0
  %3 = call noundef i32 @_ZN10VM_Version19extended_cpu_familyEv()
  %4 = icmp eq i32 %3, 6
  br label %5

5:                                                ; preds = %2, %0
  %6 = phi i1 [ false, %0 ], [ %4, %2 ]
  ret i1 %6
}

; Function Attrs: mustprogress nounwind uwtable
define linkonce_odr hidden void @_ZN10VM_Version21assert_is_initializedEv() #1 comdat align 2 {
  call void @_ZNK10VM_Version9CpuidInfo21assert_is_initializedEv(ptr noundef nonnull align 8 dereferenceable(672) @_ZN10VM_Version11_cpuid_infoE)
  ret void
}

; Function Attrs: mustprogress nounwind uwtable
define linkonce_odr hidden noundef zeroext i1 @_ZN10VM_Version12supports_avxEv() #1 comdat align 2 {
  %1 = load i64, ptr @_ZN19Abstract_VM_Version9_featuresE, align 8
  %2 = and i64 %1, 262144
  %3 = icmp ne i64 %2, 0
  ret i1 %3
}

; Function Attrs: mustprogress nounwind uwtable
define linkonce_odr hidden noundef zeroext i1 @_ZN10VM_Version6is_amdEv() #1 comdat align 2 {
  call void @_ZN10VM_Version21assert_is_initializedEv()
  %1 = load i32, ptr getelementptr inbounds (%"class.VM_Version::CpuidInfo", ptr @_ZN10VM_Version11_cpuid_infoE, i32 0, i32 1), align 4
  %2 = icmp eq i32 %1, 1752462657
  ret i1 %2
}

; Function Attrs: mustprogress nounwind uwtable
define linkonce_odr hidden noundef zeroext i1 @_ZN10VM_Version16is_intel_skylakeEv() #1 comdat align 2 {
  %1 = call noundef zeroext i1 @_ZN10VM_Version20is_intel_family_coreEv()
  br i1 %1, label %2, label %5

2:                                                ; preds = %0
  %3 = call noundef i32 @_ZN10VM_Version18extended_cpu_modelEv()
  %4 = icmp eq i32 %3, 85
  br label %5

5:                                                ; preds = %2, %0
  %6 = phi i1 [ false, %0 ], [ %4, %2 ]
  ret i1 %6
}

; Function Attrs: mustprogress nounwind uwtable
define linkonce_odr hidden noundef zeroext i1 @_ZN10VM_Version13supports_clwbEv() #1 comdat align 2 {
  %1 = load i64, ptr @_ZN19Abstract_VM_Version9_featuresE, align 8
  %2 = and i64 %1, 8796093022208
  %3 = icmp ne i64 %2, 0
  ret i1 %3
}

; Function Attrs: mustprogress nounwind uwtable
define linkonce_odr hidden noundef zeroext i1 @_ZN10VM_Version8is_intelEv() #1 comdat align 2 {
  call void @_ZN10VM_Version21assert_is_initializedEv()
  %1 = load i32, ptr getelementptr inbounds (%"class.VM_Version::CpuidInfo", ptr @_ZN10VM_Version11_cpuid_infoE, i32 0, i32 1), align 4
  %2 = icmp eq i32 %1, 1970169159
  ret i1 %2
}

; Function Attrs: mustprogress nounwind uwtable
define linkonce_odr hidden noundef zeroext i1 @_ZN10VM_Version21supports_fast_2op_leaEv() #1 comdat align 2 {
  %1 = call noundef zeroext i1 @_ZN10VM_Version8is_intelEv()
  br i1 %1, label %2, label %4

2:                                                ; preds = %0
  %3 = call noundef zeroext i1 @_ZN10VM_Version12supports_avxEv()
  br i1 %3, label %10, label %4

4:                                                ; preds = %2, %0
  %5 = call noundef zeroext i1 @_ZN10VM_Version6is_amdEv()
  br i1 %5, label %6, label %8

6:                                                ; preds = %4
  %7 = call noundef zeroext i1 @_ZN10VM_Version12supports_avxEv()
  br label %8

8:                                                ; preds = %6, %4
  %9 = phi i1 [ false, %4 ], [ %7, %6 ]
  br label %10

10:                                               ; preds = %8, %2
  %11 = phi i1 [ true, %2 ], [ %9, %8 ]
  ret i1 %11
}

; Function Attrs: mustprogress nounwind uwtable
define internal noundef ptr @"_ZZN13decL_rRegNode8peepholeEP5BlockiP8PhaseCFGP13PhaseRegAllocENK3$_0cvPFP8MachNodevEEv"(ptr noundef nonnull align 1 dereferenceable(1) %0) #1 align 2 {
  %2 = alloca ptr, align 8
  store ptr %0, ptr %2, align 8
  ret ptr @"_ZZN13decL_rRegNode8peepholeEP5BlockiP8PhaseCFGP13PhaseRegAllocEN3$_08__invokeEv"
}

; Function Attrs: mustprogress nounwind uwtable
define linkonce_odr hidden noundef zeroext i1 @_ZN10VM_Version21supports_fast_3op_leaEv() #1 comdat align 2 {
  %1 = call noundef zeroext i1 @_ZN10VM_Version21supports_fast_2op_leaEv()
  br i1 %1, label %2, label %12

2:                                                ; preds = %0
  %3 = call noundef zeroext i1 @_ZN10VM_Version8is_intelEv()
  br i1 %3, label %4, label %8

4:                                                ; preds = %2
  %5 = call noundef zeroext i1 @_ZN10VM_Version13supports_clwbEv()
  br i1 %5, label %6, label %8

6:                                                ; preds = %4
  %7 = call noundef zeroext i1 @_ZN10VM_Version16is_intel_skylakeEv()
  br i1 %7, label %8, label %10

8:                                                ; preds = %6, %4, %2
  %9 = call noundef zeroext i1 @_ZN10VM_Version6is_amdEv()
  br label %10

10:                                               ; preds = %8, %6
  %11 = phi i1 [ true, %6 ], [ %9, %8 ]
  br label %12

12:                                               ; preds = %10, %0
  %13 = phi i1 [ false, %0 ], [ %11, %10 ]
  ret i1 %13
}

; Function Attrs: mustprogress nounwind uwtable
define hidden noundef i32 @_ZN13decL_rRegNode8peepholeEP5BlockiP8PhaseCFGP13PhaseRegAlloc(ptr noundef nonnull align 8 dereferenceable(88) %0, ptr noundef %1, i32 noundef %2, ptr noundef %3, ptr noundef %4) unnamed_addr #1 align 2 {
  %6 = alloca i32, align 4
  %7 = alloca ptr, align 8
  %8 = alloca ptr, align 8
  %9 = alloca i32, align 4
  %10 = alloca ptr, align 8
  %11 = alloca ptr, align 8
  %12 = alloca i8, align 1
  %13 = alloca ptr, align 8
  %14 = alloca %class.anon.12, align 1
  %15 = alloca i8, align 1
  store ptr %0, ptr %7, align 8
  store ptr %1, ptr %8, align 8
  store i32 %2, ptr %9, align 4
  store ptr %3, ptr %10, align 8
  store ptr %4, ptr %11, align 8
  %16 = load ptr, ptr %7, align 8
  store i8 1, ptr %12, align 1
  store ptr %16, ptr %13, align 8
  %17 = call noundef zeroext i1 @_ZN10VM_Version21supports_fast_3op_leaEv()
  br i1 %17, label %20, label %18

18:                                               ; preds = %5
  %19 = call noundef zeroext i1 @_ZN10VM_Version21is_intel_cascade_lakeEv()
  br i1 %19, label %20, label %32

20:                                               ; preds = %18, %5
  %21 = load ptr, ptr %8, align 8
  %22 = load i32, ptr %9, align 4
  %23 = load ptr, ptr %10, align 8
  %24 = load ptr, ptr %11, align 8
  %25 = call noundef ptr @"_ZZN13decL_rRegNode8peepholeEP5BlockiP8PhaseCFGP13PhaseRegAllocENK3$_0cvPFP8MachNodevEEv"(ptr noundef nonnull align 1 dereferenceable(1) %14) #4
  %26 = call noundef zeroext i1 @_ZN8Peephole16lea_coalesce_immEP5BlockiP8PhaseCFGP13PhaseRegAllocPFP8MachNodevEj(ptr noundef %21, i32 noundef %22, ptr noundef %23, ptr noundef %24, ptr noundef %25, i32 noundef 731)
  %27 = zext i1 %26 to i8
  store i8 %27, ptr %15, align 1
  %28 = load i8, ptr %15, align 1
  %29 = trunc i8 %28 to i1
  br i1 %29, label %30, label %31

30:                                               ; preds = %20
  store i32 8, ptr %6, align 4
  br label %33

31:                                               ; preds = %20
  br label %32

32:                                               ; preds = %31, %18
  store i32 -1, ptr %6, align 4
  br label %33

33:                                               ; preds = %32, %30
  %34 = load i32, ptr %6, align 4
  ret i32 %34
}