; Function Attrs: mustprogress nounwind uwtable
define hidden noundef range(i32 -1, 9) i32 @_ZN13decL_rRegNode8peepholeEP5BlockiP8PhaseCFGP13PhaseRegAlloc(ptr nocapture noundef nonnull readnone align 8 dereferenceable(88) %0, ptr noundef %1, i32 noundef %2, ptr noundef %3, ptr noundef %4) unnamed_addr #0 align 2 {
  %6 = load i32, ptr getelementptr inbounds (i8, ptr @_ZN10VM_Version11_cpuid_infoE, i64 4), align 4
  switch i32 %6, label %_ZN10VM_Version21supports_fast_3op_leaEv.exit.thread [
    i32 1970169159, label %_ZN10VM_Version21supports_fast_2op_leaEv.exit.i
    i32 1752462657, label %7
  ]

7:                                                ; preds = %5
  %8 = load i64, ptr @_ZN19Abstract_VM_Version9_featuresE, align 8
  %9 = and i64 %8, 262144
  %.not.i = icmp eq i64 %9, 0
  br i1 %.not.i, label %_ZN10VM_Version21supports_fast_3op_leaEv.exit.thread, label %_ZN10VM_Version21supports_fast_3op_leaEv.exit

_ZN10VM_Version21supports_fast_2op_leaEv.exit.i:  ; preds = %5
  %10 = load i64, ptr @_ZN19Abstract_VM_Version9_featuresE, align 8
  %11 = and i64 %10, 8796093284352
  %or.cond.not = icmp eq i64 %11, 8796093284352
  br i1 %or.cond.not, label %_ZN10VM_Version20is_intel_family_coreEv.exit.i.i, label %_ZN10VM_Version21supports_fast_3op_leaEv.exit.thread

_ZN10VM_Version20is_intel_family_coreEv.exit.i.i: ; preds = %_ZN10VM_Version21supports_fast_2op_leaEv.exit.i
  %12 = load i32, ptr getelementptr inbounds (i8, ptr @_ZN10VM_Version11_cpuid_infoE, i64 16), align 8
  %13 = lshr i32 %12, 8
  %14 = and i32 %13, 15
  %15 = lshr i32 %12, 20
  %16 = and i32 %15, 255
  %17 = add nuw nsw i32 %14, %16
  %18 = icmp eq i32 %17, 6
  br i1 %18, label %_ZN10VM_Version16is_intel_skylakeEv.exit.i, label %_ZN10VM_Version21supports_fast_3op_leaEv.exit

_ZN10VM_Version16is_intel_skylakeEv.exit.i:       ; preds = %_ZN10VM_Version20is_intel_family_coreEv.exit.i.i
  %19 = lshr i32 %12, 4
  %20 = and i32 %19, 15
  %21 = lshr i32 %12, 12
  %22 = and i32 %21, 240
  %23 = or disjoint i32 %20, %22
  %24 = icmp eq i32 %23, 85
  br i1 %24, label %_ZN10VM_Version21supports_fast_3op_leaEv.exit.thread, label %_ZN10VM_Version21supports_fast_3op_leaEv.exit

_ZN10VM_Version21supports_fast_3op_leaEv.exit.thread: ; preds = %_ZN10VM_Version16is_intel_skylakeEv.exit.i, %5, %7, %_ZN10VM_Version21supports_fast_2op_leaEv.exit.i
  %25 = tail call noundef zeroext i1 @_ZN10VM_Version21is_intel_cascade_lakeEv() #3
  br i1 %25, label %_ZN10VM_Version21supports_fast_3op_leaEv.exit, label %27

_ZN10VM_Version21supports_fast_3op_leaEv.exit:    ; preds = %_ZN10VM_Version20is_intel_family_coreEv.exit.i.i, %_ZN10VM_Version16is_intel_skylakeEv.exit.i, %7, %_ZN10VM_Version21supports_fast_3op_leaEv.exit.thread
  %26 = tail call noundef zeroext i1 @_ZN8Peephole16lea_coalesce_immEP5BlockiP8PhaseCFGP13PhaseRegAllocPFP8MachNodevEj(ptr noundef %1, i32 noundef %2, ptr noundef %3, ptr noundef %4, ptr noundef nonnull @"_ZZN13decL_rRegNode8peepholeEP5BlockiP8PhaseCFGP13PhaseRegAllocEN3$_08__invokeEv", i32 noundef 731) #3
  br i1 %26, label %28, label %27

27:                                               ; preds = %_ZN10VM_Version21supports_fast_3op_leaEv.exit, %_ZN10VM_Version21supports_fast_3op_leaEv.exit.thread
  br label %28

28:                                               ; preds = %_ZN10VM_Version21supports_fast_3op_leaEv.exit, %27
  %.0 = phi i32 [ -1, %27 ], [ 8, %_ZN10VM_Version21supports_fast_3op_leaEv.exit ]
  ret i32 %.0
}